; ModuleID = '45/588.c'
source_filename = "45/588.c"
target datalayout = "e-m:e-p270:32:32-p271:32:32-p272:64:64-i64:64-f80:128-n8:16:32:64-S128"
target triple = "x86_64-pc-linux-gnu"

@.str = private unnamed_addr constant [6 x i8] c"%s %s\00", align 1
@.str.1 = private unnamed_addr constant [3 x i8] c"%d\00", align 1

; Function Attrs: noinline nounwind uwtable
define dso_local void @main() #0 {
  %1 = alloca [50 x i8], align 16
  %2 = alloca [50 x i8], align 16
  %3 = alloca i8*, align 8
  %4 = alloca i8*, align 8
  %5 = getelementptr inbounds [50 x i8], [50 x i8]* %1, i64 0, i64 0
  %6 = getelementptr inbounds [50 x i8], [50 x i8]* %2, i64 0, i64 0
  %7 = call i32 (i8*, ...) @__isoc99_scanf(i8* getelementptr inbounds ([6 x i8], [6 x i8]* @.str, i64 0, i64 0), i8* %5, i8* %6)
  %8 = getelementptr inbounds [50 x i8], [50 x i8]* %1, i64 0, i64 0
  store i8* %8, i8** %3, align 8
  %9 = getelementptr inbounds [50 x i8], [50 x i8]* %2, i64 0, i64 0
  store i8* %9, i8** %4, align 8
  br label %10

10:                                               ; preds = %62, %0
  %11 = load i8*, i8** %3, align 8
  %12 = load i8, i8* %11, align 1
  %13 = sext i8 %12 to i32
  %14 = load i8*, i8** %4, align 8
  %15 = load i8, i8* %14, align 1
  %16 = sext i8 %15 to i32
  %17 = icmp eq i32 %13, %16
  br i1 %17, label %18, label %40

18:                                               ; preds = %10
  %19 = load i8*, i8** %3, align 8
  %20 = load i8, i8* %19, align 1
  %21 = sext i8 %20 to i32
  %22 = icmp eq i32 %21, 0
  br i1 %22, label %23, label %34

23:                                               ; preds = %18
  %24 = load i8*, i8** %4, align 8
  %25 = getelementptr inbounds [50 x i8], [50 x i8]* %1, i64 0, i64 0
  %26 = call i64 @strlen(i8* %25) #3
  %27 = sub i64 0, %26
  %28 = getelementptr inbounds i8, i8* %24, i64 %27
  %29 = getelementptr inbounds [50 x i8], [50 x i8]* %2, i64 0, i64 0
  %30 = ptrtoint i8* %28 to i64
  %31 = ptrtoint i8* %29 to i64
  %32 = sub i64 %30, %31
  %33 = call i32 (i8*, ...) @printf(i8* getelementptr inbounds ([3 x i8], [3 x i8]* @.str.1, i64 0, i64 0), i64 %32)
  br label %65

34:                                               ; preds = %18
  %35 = load i8*, i8** %3, align 8
  %36 = getelementptr inbounds i8, i8* %35, i32 1
  store i8* %36, i8** %3, align 8
  %37 = load i8*, i8** %4, align 8
  %38 = getelementptr inbounds i8, i8* %37, i32 1
  store i8* %38, i8** %4, align 8
  br label %39

39:                                               ; preds = %34
  br label %61

40:                                               ; preds = %10
  %41 = load i8*, i8** %3, align 8
  %42 = load i8, i8* %41, align 1
  %43 = sext i8 %42 to i32
  %44 = icmp eq i32 %43, 0
  br i1 %44, label %45, label %56

45:                                               ; preds = %40
  %46 = load i8*, i8** %4, align 8
  %47 = getelementptr inbounds [50 x i8], [50 x i8]* %1, i64 0, i64 0
  %48 = call i64 @strlen(i8* %47) #3
  %49 = sub i64 0, %48
  %50 = getelementptr inbounds i8, i8* %46, i64 %49
  %51 = getelementptr inbounds [50 x i8], [50 x i8]* %2, i64 0, i64 0
  %52 = ptrtoint i8* %50 to i64
  %53 = ptrtoint i8* %51 to i64
  %54 = sub i64 %52, %53
  %55 = call i32 (i8*, ...) @printf(i8* getelementptr inbounds ([3 x i8], [3 x i8]* @.str.1, i64 0, i64 0), i64 %54)
  br label %65

56:                                               ; preds = %40
  %57 = getelementptr inbounds [50 x i8], [50 x i8]* %1, i64 0, i64 0
  store i8* %57, i8** %3, align 8
  %58 = load i8*, i8** %4, align 8
  %59 = getelementptr inbounds i8, i8* %58, i32 1
  store i8* %59, i8** %4, align 8
  br label %60

60:                                               ; preds = %56
  br label %61

61:                                               ; preds = %60, %39
  br label %62

62:                                               ; preds = %61
  %63 = load i8*, i8** %4, align 8
  %64 = icmp ne i8* %63, null
  br i1 %64, label %10, label %65

65:                                               ; preds = %23, %45, %62
  ret void
}

declare dso_local i32 @__isoc99_scanf(i8*, ...) #1

declare dso_local i32 @printf(i8*, ...) #1

; Function Attrs: nounwind readonly
declare dso_local i64 @strlen(i8*) #2


!llvm.module.flags = !{!0}
!llvm.ident = !{!1}

!0 = !{i32 1, !"wchar_size", i32 4}
!1 = !{!"clang version 10.0.0-4ubuntu1 "}
