; ModuleID = 'source-C-CXX/44/588.c'
source_filename = "source-C-CXX/44/588.c"
target datalayout = "e-m:e-p270:32:32-p271:32:32-p272:64:64-i64:64-f80:128-n8:16:32:64-S128"
target triple = "x86_64-pc-linux-gnu"

@.str = private unnamed_addr constant [6 x i8] c"%s %s\00", align 1
@.str.1 = private unnamed_addr constant [3 x i8] c"%d\00", align 1

; Function Attrs: nofree nounwind sspstrong uwtable
define dso_local void @main() local_unnamed_addr #0 {
  %1 = alloca [50 x i8], align 16
  %2 = alloca [50 x i8], align 16
  %3 = getelementptr inbounds [50 x i8], [50 x i8]* %1, i64 0, i64 0
  call void @llvm.lifetime.start.p0i8(i64 50, i8* nonnull %3) #4
  %4 = getelementptr inbounds [50 x i8], [50 x i8]* %2, i64 0, i64 0
  call void @llvm.lifetime.start.p0i8(i64 50, i8* nonnull %4) #4
  %5 = call i32 (i8*, ...) @__isoc99_scanf(i8* getelementptr inbounds ([6 x i8], [6 x i8]* @.str, i64 0, i64 0), i8* nonnull %3, i8* nonnull %4)
  br label %6

6:                                                ; preds = %17, %0
  %7 = phi i8* [ %3, %0 ], [ %18, %17 ]
  %8 = phi i8* [ %4, %0 ], [ %19, %17 ]
  %9 = load i8, i8* %7, align 1, !tbaa !5
  %10 = load i8, i8* %8, align 1, !tbaa !5
  %11 = icmp eq i8 %9, %10
  %12 = icmp eq i8 %9, 0
  br i1 %11, label %13, label %16

13:                                               ; preds = %6
  br i1 %12, label %20, label %14

14:                                               ; preds = %13
  %15 = getelementptr inbounds i8, i8* %7, i64 1
  br label %17

16:                                               ; preds = %6
  br i1 %12, label %20, label %17

17:                                               ; preds = %16, %14
  %18 = phi i8* [ %15, %14 ], [ %3, %16 ]
  %19 = getelementptr inbounds i8, i8* %8, i64 1
  br label %6

20:                                               ; preds = %16, %13
  %21 = call i64 @strlen(i8* noundef nonnull %3) #5
  %22 = sub i64 0, %21
  %23 = getelementptr inbounds i8, i8* %8, i64 %22
  %24 = ptrtoint i8* %23 to i64
  %25 = ptrtoint [50 x i8]* %2 to i64
  %26 = sub i64 %24, %25
  %27 = call i32 (i8*, ...) @printf(i8* nonnull dereferenceable(1) getelementptr inbounds ([3 x i8], [3 x i8]* @.str.1, i64 0, i64 0), i64 %26)
  call void @llvm.lifetime.end.p0i8(i64 50, i8* nonnull %4) #4
  call void @llvm.lifetime.end.p0i8(i64 50, i8* nonnull %3) #4
  ret void
}

; Function Attrs: argmemonly mustprogress nofree nosync nounwind willreturn
declare void @llvm.lifetime.start.p0i8(i64 immarg, i8* nocapture) #1

; Function Attrs: nofree nounwind
declare noundef i32 @__isoc99_scanf(i8* nocapture noundef readonly, ...) local_unnamed_addr #2

; Function Attrs: nofree nounwind
declare noundef i32 @printf(i8* nocapture noundef readonly, ...) local_unnamed_addr #2

; Function Attrs: argmemonly mustprogress nofree nounwind readonly willreturn
declare i64 @strlen(i8* nocapture) local_unnamed_addr #3

; Function Attrs: argmemonly mustprogress nofree nosync nounwind willreturn
declare void @llvm.lifetime.end.p0i8(i64 immarg, i8* nocapture) #1


!llvm.module.flags = !{!0, !1, !2, !3}
!llvm.ident = !{!4}

!0 = !{i32 1, !"wchar_size", i32 4}
!1 = !{i32 7, !"PIC Level", i32 2}
!2 = !{i32 7, !"PIE Level", i32 2}
!3 = !{i32 7, !"uwtable", i32 1}
!4 = !{!"clang version 13.0.0"}
!5 = !{!6, !6, i64 0}
!6 = !{!"omnipotent char", !7, i64 0}
!7 = !{!"Simple C/C++ TBAA"}
